target datalayout = "e-m:e-p270:32:32-p271:32:32-p272:64:64-i64:64-i128:128-f80:128-n8:16:32:64-S128"
target triple = "x86_64-unknown-linux-gnu"

%"class.std::_Function_base" = type { %"union.std::_Any_data", ptr }
%"union.std::_Any_data" = type { %"union.std::_Nocopy_types" }
%"union.std::_Nocopy_types" = type { { i64, i64 } }
%"class.std::function.359" = type { %"class.std::_Function_base", ptr }
%class.anon = type { i8, ptr }

; Function Attrs: mustprogress nounwind uwtable
define linkonce_odr noundef zeroext i1 @_ZNKSt14_Function_base8_M_emptyEv(ptr noundef nonnull align 8 dereferenceable(24) %this) #1 comdat align 2 {
entry:
  %this.addr = alloca ptr, align 8
  store ptr %this, ptr %this.addr, align 8
  %this1 = load ptr, ptr %this.addr, align 8
  %_M_manager = getelementptr inbounds %"class.std::_Function_base", ptr %this1, i32 0, i32 1
  %0 = load ptr, ptr %_M_manager, align 8
  %tobool = icmp ne ptr %0, null
  %lnot = xor i1 %tobool, true
  ret i1 %lnot
}

; Function Attrs: mustprogress uwtable
define linkonce_odr noundef zeroext i1 @_ZNKSt8functionIFbN7rocksdb11PinningTierES1_EEclES1_S1_(ptr noundef nonnull align 8 dereferenceable(32) %this, i32 noundef %__args, i32 noundef %__args1) #0 comdat align 2 {
entry:
  %this.addr = alloca ptr, align 8
  %__args.addr = alloca i32, align 4
  %__args.addr2 = alloca i32, align 4
  store ptr %this, ptr %this.addr, align 8
  store i32 %__args, ptr %__args.addr, align 4
  store i32 %__args1, ptr %__args.addr2, align 4
  %this3 = load ptr, ptr %this.addr, align 8
  %call = call noundef zeroext i1 @_ZNKSt14_Function_base8_M_emptyEv(ptr noundef nonnull align 8 dereferenceable(24) %this3)
  br i1 %call, label %if.then, label %if.end

if.then:                                          ; preds = %entry
  call void @_ZSt25__throw_bad_function_callv() #21
  unreachable

if.end:                                           ; preds = %entry
  %_M_invoker = getelementptr inbounds %"class.std::function.359", ptr %this3, i32 0, i32 1
  %0 = load ptr, ptr %_M_invoker, align 8
  %_M_functor = getelementptr inbounds %"class.std::_Function_base", ptr %this3, i32 0, i32 0
  %call4 = call noundef zeroext i1 %0(ptr noundef nonnull align 8 dereferenceable(16) %_M_functor, ptr noundef nonnull align 4 dereferenceable(4) %__args.addr, ptr noundef nonnull align 4 dereferenceable(4) %__args.addr2)
  ret i1 %call4
}

; Function Attrs: mustprogress uwtable
define internal noundef zeroext i1 @"_ZZN7rocksdb15BlockBasedTable28PrefetchIndexAndFilterBlocksERKNS_11ReadOptionsEPNS_18FilePrefetchBufferEPNS_20InternalIteratorBaseINS_5SliceEEEPS0_bRKNS_22BlockBasedTableOptionsEimmPNS_23BlockCacheLookupContextEENK3$_0clENS_11PinningTierESH_"(ptr noundef nonnull align 8 dereferenceable(16) %this, i32 noundef %pinning_tier, i32 noundef %fallback_pinning_tier) #0 align 2 {
entry:
  %retval = alloca i1, align 1
  %this.addr = alloca ptr, align 8
  %pinning_tier.addr = alloca i32, align 4
  %fallback_pinning_tier.addr = alloca i32, align 4
  store ptr %this, ptr %this.addr, align 8
  store i32 %pinning_tier, ptr %pinning_tier.addr, align 4
  store i32 %fallback_pinning_tier, ptr %fallback_pinning_tier.addr, align 4
  %this1 = load ptr, ptr %this.addr, align 8
  %0 = load i32, ptr %pinning_tier.addr, align 4
  switch i32 %0, label %sw.epilog [
    i32 0, label %sw.bb
    i32 1, label %sw.bb2
    i32 2, label %sw.bb3
    i32 3, label %sw.bb4
  ]

sw.bb:                                            ; preds = %entry
  %1 = getelementptr inbounds %class.anon, ptr %this1, i32 0, i32 1
  %2 = load ptr, ptr %1, align 8
  %3 = load i32, ptr %fallback_pinning_tier.addr, align 4
  %call = call noundef zeroext i1 @_ZNKSt8functionIFbN7rocksdb11PinningTierES1_EEclES1_S1_(ptr noundef nonnull align 8 dereferenceable(32) %2, i32 noundef %3, i32 noundef 1)
  store i1 %call, ptr %retval, align 1
  br label %return

sw.bb2:                                           ; preds = %entry
  store i1 false, ptr %retval, align 1
  br label %return

sw.bb3:                                           ; preds = %entry
  %4 = getelementptr inbounds %class.anon, ptr %this1, i32 0, i32 0
  %5 = load i8, ptr %4, align 8
  %tobool = trunc i8 %5 to i1
  store i1 %tobool, ptr %retval, align 1
  br label %return

sw.bb4:                                           ; preds = %entry
  store i1 true, ptr %retval, align 1
  br label %return

sw.epilog:                                        ; preds = %entry
  store i1 false, ptr %retval, align 1
  br label %return

return:                                           ; preds = %sw.epilog, %sw.bb4, %sw.bb3, %sw.bb2, %sw.bb
  %6 = load i1, ptr %retval, align 1
  ret i1 %6
}

; Function Attrs: mustprogress nounwind uwtable
define linkonce_odr noundef ptr @_ZNKSt9_Any_data9_M_accessEv(ptr noundef nonnull align 8 dereferenceable(16) %this) #1 comdat align 2 {
entry:
  %this.addr = alloca ptr, align 8
  store ptr %this, ptr %this.addr, align 8
  %this1 = load ptr, ptr %this.addr, align 8
  %arrayidx = getelementptr inbounds [16 x i8], ptr %this1, i64 0, i64 0
  ret ptr %arrayidx
}

; Function Attrs: mustprogress uwtable
define internal noundef zeroext i1 @"_ZSt13__invoke_implIbRZN7rocksdb15BlockBasedTable28PrefetchIndexAndFilterBlocksERKNS0_11ReadOptionsEPNS0_18FilePrefetchBufferEPNS0_20InternalIteratorBaseINS0_5SliceEEEPS1_bRKNS0_22BlockBasedTableOptionsEimmPNS0_23BlockCacheLookupContextEE3$_0JNS0_11PinningTierESJ_EET_St14__invoke_otherOT0_DpOT1_"(ptr noundef nonnull align 8 dereferenceable(16) %__f, ptr noundef nonnull align 4 dereferenceable(4) %__args, ptr noundef nonnull align 4 dereferenceable(4) %__args1) #0 {
entry:
  %__f.addr = alloca ptr, align 8
  %__args.addr = alloca ptr, align 8
  %__args.addr2 = alloca ptr, align 8
  store ptr %__f, ptr %__f.addr, align 8
  store ptr %__args, ptr %__args.addr, align 8
  store ptr %__args1, ptr %__args.addr2, align 8
  %0 = load ptr, ptr %__f.addr, align 8
  %1 = load ptr, ptr %__args.addr, align 8
  %2 = load i32, ptr %1, align 4
  %3 = load ptr, ptr %__args.addr2, align 8
  %4 = load i32, ptr %3, align 4
  %call = call noundef zeroext i1 @"_ZZN7rocksdb15BlockBasedTable28PrefetchIndexAndFilterBlocksERKNS_11ReadOptionsEPNS_18FilePrefetchBufferEPNS_20InternalIteratorBaseINS_5SliceEEEPS0_bRKNS_22BlockBasedTableOptionsEimmPNS_23BlockCacheLookupContextEENK3$_0clENS_11PinningTierESH_"(ptr noundef nonnull align 8 dereferenceable(16) %0, i32 noundef %2, i32 noundef %4)
  ret i1 %call
}

; Function Attrs: mustprogress nounwind uwtable
define internal noundef nonnull align 8 dereferenceable(16) ptr @"_ZNKSt9_Any_data9_M_accessIZN7rocksdb15BlockBasedTable28PrefetchIndexAndFilterBlocksERKNS1_11ReadOptionsEPNS1_18FilePrefetchBufferEPNS1_20InternalIteratorBaseINS1_5SliceEEEPS2_bRKNS1_22BlockBasedTableOptionsEimmPNS1_23BlockCacheLookupContextEE3$_0EERKT_v"(ptr noundef nonnull align 8 dereferenceable(16) %this) #1 align 2 {
entry:
  %this.addr = alloca ptr, align 8
  store ptr %this, ptr %this.addr, align 8
  %this1 = load ptr, ptr %this.addr, align 8
  %call = call noundef ptr @_ZNKSt9_Any_data9_M_accessEv(ptr noundef nonnull align 8 dereferenceable(16) %this1) #3
  ret ptr %call
}

; Function Attrs: mustprogress uwtable
define internal noundef zeroext i1 @"_ZSt10__invoke_rIbRZN7rocksdb15BlockBasedTable28PrefetchIndexAndFilterBlocksERKNS0_11ReadOptionsEPNS0_18FilePrefetchBufferEPNS0_20InternalIteratorBaseINS0_5SliceEEEPS1_bRKNS0_22BlockBasedTableOptionsEimmPNS0_23BlockCacheLookupContextEE3$_0JNS0_11PinningTierESJ_EENSt9enable_ifIX16is_invocable_r_vIT_T0_DpT1_EESL_E4typeEOSM_DpOSN_"(ptr noundef nonnull align 8 dereferenceable(16) %__fn, ptr noundef nonnull align 4 dereferenceable(4) %__args, ptr noundef nonnull align 4 dereferenceable(4) %__args1) #0 {
entry:
  %__fn.addr = alloca ptr, align 8
  %__args.addr = alloca ptr, align 8
  %__args.addr2 = alloca ptr, align 8
  store ptr %__fn, ptr %__fn.addr, align 8
  store ptr %__args, ptr %__args.addr, align 8
  store ptr %__args1, ptr %__args.addr2, align 8
  %0 = load ptr, ptr %__fn.addr, align 8
  %1 = load ptr, ptr %__args.addr, align 8
  %2 = load ptr, ptr %__args.addr2, align 8
  %call = call noundef zeroext i1 @"_ZSt13__invoke_implIbRZN7rocksdb15BlockBasedTable28PrefetchIndexAndFilterBlocksERKNS0_11ReadOptionsEPNS0_18FilePrefetchBufferEPNS0_20InternalIteratorBaseINS0_5SliceEEEPS1_bRKNS0_22BlockBasedTableOptionsEimmPNS0_23BlockCacheLookupContextEE3$_0JNS0_11PinningTierESJ_EET_St14__invoke_otherOT0_DpOT1_"(ptr noundef nonnull align 8 dereferenceable(16) %0, ptr noundef nonnull align 4 dereferenceable(4) %1, ptr noundef nonnull align 4 dereferenceable(4) %2)
  ret i1 %call
}

; Function Attrs: mustprogress nounwind uwtable
define internal noundef ptr @"_ZNSt14_Function_base13_Base_managerIZN7rocksdb15BlockBasedTable28PrefetchIndexAndFilterBlocksERKNS1_11ReadOptionsEPNS1_18FilePrefetchBufferEPNS1_20InternalIteratorBaseINS1_5SliceEEEPS2_bRKNS1_22BlockBasedTableOptionsEimmPNS1_23BlockCacheLookupContextEE3$_0E14_M_get_pointerERKSt9_Any_data"(ptr noundef nonnull align 8 dereferenceable(16) %__source) #1 align 2 {
entry:
  %__source.addr = alloca ptr, align 8
  %__f = alloca ptr, align 8
  store ptr %__source, ptr %__source.addr, align 8
  %0 = load ptr, ptr %__source.addr, align 8
  %call = call noundef nonnull align 8 dereferenceable(16) ptr @"_ZNKSt9_Any_data9_M_accessIZN7rocksdb15BlockBasedTable28PrefetchIndexAndFilterBlocksERKNS1_11ReadOptionsEPNS1_18FilePrefetchBufferEPNS1_20InternalIteratorBaseINS1_5SliceEEEPS2_bRKNS1_22BlockBasedTableOptionsEimmPNS1_23BlockCacheLookupContextEE3$_0EERKT_v"(ptr noundef nonnull align 8 dereferenceable(16) %0) #3
  store ptr %call, ptr %__f, align 8
  %1 = load ptr, ptr %__f, align 8
  ret ptr %1
}

; Function Attrs: mustprogress uwtable
define internal noundef zeroext i1 @"_ZNSt17_Function_handlerIFbN7rocksdb11PinningTierES1_EZNS0_15BlockBasedTable28PrefetchIndexAndFilterBlocksERKNS0_11ReadOptionsEPNS0_18FilePrefetchBufferEPNS0_20InternalIteratorBaseINS0_5SliceEEEPS3_bRKNS0_22BlockBasedTableOptionsEimmPNS0_23BlockCacheLookupContextEE3$_0E9_M_invokeERKSt9_Any_dataOS1_SO_"(ptr noundef nonnull align 8 dereferenceable(16) %__functor, ptr noundef nonnull align 4 dereferenceable(4) %__args, ptr noundef nonnull align 4 dereferenceable(4) %__args1) #0 align 2 {
entry:
  %__functor.addr = alloca ptr, align 8
  %__args.addr = alloca ptr, align 8
  %__args.addr2 = alloca ptr, align 8
  store ptr %__functor, ptr %__functor.addr, align 8
  store ptr %__args, ptr %__args.addr, align 8
  store ptr %__args1, ptr %__args.addr2, align 8
  %0 = load ptr, ptr %__functor.addr, align 8
  %call = call noundef ptr @"_ZNSt14_Function_base13_Base_managerIZN7rocksdb15BlockBasedTable28PrefetchIndexAndFilterBlocksERKNS1_11ReadOptionsEPNS1_18FilePrefetchBufferEPNS1_20InternalIteratorBaseINS1_5SliceEEEPS2_bRKNS1_22BlockBasedTableOptionsEimmPNS1_23BlockCacheLookupContextEE3$_0E14_M_get_pointerERKSt9_Any_data"(ptr noundef nonnull align 8 dereferenceable(16) %0) #3
  %1 = load ptr, ptr %__args.addr, align 8
  %2 = load ptr, ptr %__args.addr2, align 8
  %call3 = call noundef zeroext i1 @"_ZSt10__invoke_rIbRZN7rocksdb15BlockBasedTable28PrefetchIndexAndFilterBlocksERKNS0_11ReadOptionsEPNS0_18FilePrefetchBufferEPNS0_20InternalIteratorBaseINS0_5SliceEEEPS1_bRKNS0_22BlockBasedTableOptionsEimmPNS0_23BlockCacheLookupContextEE3$_0JNS0_11PinningTierESJ_EENSt9enable_ifIX16is_invocable_r_vIT_T0_DpT1_EESL_E4typeEOSM_DpOSN_"(ptr noundef nonnull align 8 dereferenceable(16) %call, ptr noundef nonnull align 4 dereferenceable(4) %1, ptr noundef nonnull align 4 dereferenceable(4) %2)
  ret i1 %call3
}