; Function Attrs: mustprogress uwtable
define internal noundef zeroext i1 @"_ZNSt17_Function_handlerIFbN7rocksdb11PinningTierES1_EZNS0_15BlockBasedTable28PrefetchIndexAndFilterBlocksERKNS0_11ReadOptionsEPNS0_18FilePrefetchBufferEPNS0_20InternalIteratorBaseINS0_5SliceEEEPS3_bRKNS0_22BlockBasedTableOptionsEimmPNS0_23BlockCacheLookupContextEE3$_0E9_M_invokeERKSt9_Any_dataOS1_SO_"(ptr nocapture noundef nonnull readonly align 8 dereferenceable(16) %__functor, ptr nocapture noundef nonnull readonly align 4 dereferenceable(4) %__args, ptr nocapture noundef nonnull readonly align 4 dereferenceable(4) %__args1) #3 align 2 {
entry:
  %__args.addr.i.i.i.i = alloca i32, align 4
  %__args.addr2.i.i.i.i = alloca i32, align 4
  %0 = getelementptr inbounds i8, ptr %__functor, i64 8
  %call.val1 = load ptr, ptr %0, align 8
  %__args.val = load i32, ptr %__args, align 4
  switch i32 %__args.val, label %"_ZSt10__invoke_rIbRZN7rocksdb15BlockBasedTable28PrefetchIndexAndFilterBlocksERKNS0_11ReadOptionsEPNS0_18FilePrefetchBufferEPNS0_20InternalIteratorBaseINS0_5SliceEEEPS1_bRKNS0_22BlockBasedTableOptionsEimmPNS0_23BlockCacheLookupContextEE3$_0JNS0_11PinningTierESJ_EENSt9enable_ifIX16is_invocable_r_vIT_T0_DpT1_EESL_E4typeEOSM_DpOSN_.exit" [
    i32 0, label %sw.bb.i.i.i
    i32 3, label %sw.bb4.i.i.i
    i32 2, label %sw.bb3.i.i.i
  ]

sw.bb.i.i.i:                                      ; preds = %entry
  %__args1.val = load i32, ptr %__args1, align 4
  call void @llvm.lifetime.start.p0(i64 4, ptr nonnull %__args.addr.i.i.i.i)
  call void @llvm.lifetime.start.p0(i64 4, ptr nonnull %__args.addr2.i.i.i.i)
  store i32 %__args1.val, ptr %__args.addr.i.i.i.i, align 4
  store i32 1, ptr %__args.addr2.i.i.i.i, align 4
  %_M_manager.i.i.i.i.i = getelementptr inbounds i8, ptr %call.val1, i64 16
  %1 = load ptr, ptr %_M_manager.i.i.i.i.i, align 8
  %tobool.not.i.i.i.i.i = icmp eq ptr %1, null
  br i1 %tobool.not.i.i.i.i.i, label %if.then.i.i.i.i, label %_ZNKSt8functionIFbN7rocksdb11PinningTierES1_EEclES1_S1_.exit.i.i.i

if.then.i.i.i.i:                                  ; preds = %sw.bb.i.i.i
  tail call void @_ZSt25__throw_bad_function_callv() #31
  unreachable

_ZNKSt8functionIFbN7rocksdb11PinningTierES1_EEclES1_S1_.exit.i.i.i: ; preds = %sw.bb.i.i.i
  %_M_invoker.i.i.i.i = getelementptr inbounds i8, ptr %call.val1, i64 24
  %2 = load ptr, ptr %_M_invoker.i.i.i.i, align 8
  %call4.i.i.i.i = call noundef zeroext i1 %2(ptr noundef nonnull align 8 dereferenceable(16) %call.val1, ptr noundef nonnull align 4 dereferenceable(4) %__args.addr.i.i.i.i, ptr noundef nonnull align 4 dereferenceable(4) %__args.addr2.i.i.i.i)
  call void @llvm.lifetime.end.p0(i64 4, ptr nonnull %__args.addr.i.i.i.i)
  call void @llvm.lifetime.end.p0(i64 4, ptr nonnull %__args.addr2.i.i.i.i)
  br label %"_ZSt10__invoke_rIbRZN7rocksdb15BlockBasedTable28PrefetchIndexAndFilterBlocksERKNS0_11ReadOptionsEPNS0_18FilePrefetchBufferEPNS0_20InternalIteratorBaseINS0_5SliceEEEPS1_bRKNS0_22BlockBasedTableOptionsEimmPNS0_23BlockCacheLookupContextEE3$_0JNS0_11PinningTierESJ_EENSt9enable_ifIX16is_invocable_r_vIT_T0_DpT1_EESL_E4typeEOSM_DpOSN_.exit"

sw.bb3.i.i.i:                                     ; preds = %entry
  %call.val = load i8, ptr %__functor, align 8
  %3 = and i8 %call.val, 1
  %tobool.i.i.i = icmp ne i8 %3, 0
  br label %"_ZSt10__invoke_rIbRZN7rocksdb15BlockBasedTable28PrefetchIndexAndFilterBlocksERKNS0_11ReadOptionsEPNS0_18FilePrefetchBufferEPNS0_20InternalIteratorBaseINS0_5SliceEEEPS1_bRKNS0_22BlockBasedTableOptionsEimmPNS0_23BlockCacheLookupContextEE3$_0JNS0_11PinningTierESJ_EENSt9enable_ifIX16is_invocable_r_vIT_T0_DpT1_EESL_E4typeEOSM_DpOSN_.exit"

sw.bb4.i.i.i:                                     ; preds = %entry
  br label %"_ZSt10__invoke_rIbRZN7rocksdb15BlockBasedTable28PrefetchIndexAndFilterBlocksERKNS0_11ReadOptionsEPNS0_18FilePrefetchBufferEPNS0_20InternalIteratorBaseINS0_5SliceEEEPS1_bRKNS0_22BlockBasedTableOptionsEimmPNS0_23BlockCacheLookupContextEE3$_0JNS0_11PinningTierESJ_EENSt9enable_ifIX16is_invocable_r_vIT_T0_DpT1_EESL_E4typeEOSM_DpOSN_.exit"

"_ZSt10__invoke_rIbRZN7rocksdb15BlockBasedTable28PrefetchIndexAndFilterBlocksERKNS0_11ReadOptionsEPNS0_18FilePrefetchBufferEPNS0_20InternalIteratorBaseINS0_5SliceEEEPS1_bRKNS0_22BlockBasedTableOptionsEimmPNS0_23BlockCacheLookupContextEE3$_0JNS0_11PinningTierESJ_EENSt9enable_ifIX16is_invocable_r_vIT_T0_DpT1_EESL_E4typeEOSM_DpOSN_.exit": ; preds = %entry, %_ZNKSt8functionIFbN7rocksdb11PinningTierES1_EEclES1_S1_.exit.i.i.i, %sw.bb3.i.i.i, %sw.bb4.i.i.i
  %retval.0.i.i.i = phi i1 [ true, %sw.bb4.i.i.i ], [ %tobool.i.i.i, %sw.bb3.i.i.i ], [ %call4.i.i.i.i, %_ZNKSt8functionIFbN7rocksdb11PinningTierES1_EEclES1_S1_.exit.i.i.i ], [ false, %entry ]
  ret i1 %retval.0.i.i.i
}